; Function Attrs: nounwind uwtable
define hidden range(i32 0, 2) i32 @VP8LBitWriterInit(ptr noundef captures(none) initializes((0, 48)) %0, i64 noundef %1) local_unnamed_addr #0 {
  tail call void @llvm.memset.p0.i64(ptr noundef nonnull align 8 dereferenceable(48) %0, i8 0, i64 48, i1 false)
  %3 = and i64 %1, -1024
  %4 = add i64 %3, 1024
  %5 = tail call ptr @WebPSafeMalloc(i64 noundef 1, i64 noundef %4) #7
  %6 = icmp eq ptr %5, null
  br i1 %6, label %7, label %9

7:                                                ; preds = %2
  %8 = getelementptr inbounds nuw i8, ptr %0, i64 40
  store i32 1, ptr %8, align 8, !tbaa !22
  br label %VP8LBitWriterResize.exit

9:                                                ; preds = %2
  %10 = getelementptr inbounds nuw i8, ptr %0, i64 24
  %11 = getelementptr inbounds nuw i8, ptr %0, i64 16
  %12 = getelementptr inbounds nuw i8, ptr %0, i64 32
  %.pre = load ptr, ptr %11, align 8, !tbaa !24
  tail call void @WebPSafeFree(ptr noundef %.pre) #7
  store ptr %5, ptr %11, align 8, !tbaa !24
  store ptr %5, ptr %10, align 8, !tbaa !25
  %13 = getelementptr inbounds nuw i8, ptr %5, i64 %4
  store ptr %13, ptr %12, align 8, !tbaa !26
  br label %VP8LBitWriterResize.exit

VP8LBitWriterResize.exit:                         ; preds = %7, %9
  %.0.i = phi i32 [ 0, %7 ], [ 1, %9 ]
  ret i32 %.0.i
}